Certificate:
    Data:
        Version: 3 (0x2)
        Serial Number:
            03:c0:6d:26:f4:d7:9d:5d:6a:66:c7:8e:75:41:4f:64:aa:ca
    Signature Algorithm: sha256WithRSAEncryption
        Issuer: C=US, O=Let's Encrypt, CN=Let's Encrypt Authority X3
        Validity
            Not Before: Jul 23 10:29:29 2020 GMT
            Not After : Oct 21 10:29:29 2020 GMT
        Subject: CN=f1wall-dd.ipetronik.com
        Subject Public Key Info:
            Public Key Algorithm: rsaEncryption
                Public-Key: (2048 bit)
                Modulus:
                    00:ae:83:f6:23:62:51:47:ef:8a:5f:89:9c:31:42:
                    78:44:f8:fd:cc:36:14:d0:75:ca:15:c7:11:75:36:
                    6f:18:5a:a0:8e:ef:57:41:3c:c9:58:48:c8:d1:11:
                    ee:0f:d3:e3:89:d5:3c:c3:fa:d7:56:0e:f0:28:cd:
                    cb:78:72:d6:6c:98:04:ab:35:dc:5f:42:0b:cb:46:
                    6c:7b:c2:38:b8:6d:90:ce:12:34:4a:0a:c7:ed:7e:
                    bb:fc:18:4e:77:b6:3b:c1:a3:10:29:25:d2:23:41:
                    40:68:a5:26:97:f7:dd:23:e0:f1:57:72:9c:d4:82:
                    fb:35:b3:3c:cb:4a:a7:25:69:96:f9:40:72:d3:e1:
                    dd:43:cb:98:ac:8d:6d:98:75:fa:1a:3f:de:1f:97:
                    8b:83:7a:cb:bd:70:23:b5:99:c6:13:6d:3a:37:3d:
                    44:c5:f4:95:19:34:6c:d2:0a:2a:8a:d0:b6:9c:10:
                    4a:4b:7f:e4:da:0b:03:1f:cd:83:6c:46:f4:b9:c2:
                    6d:6d:40:c4:70:f5:06:f1:dd:bc:df:79:ac:cb:4a:
                    bd:e1:89:e7:9e:48:aa:8b:fd:cf:13:65:7e:48:3a:
                    82:62:6d:1d:b4:46:81:67:50:e9:ed:8d:1b:b5:6e:
                    42:7a:a4:eb:57:bc:48:39:57:06:cd:8d:d1:1f:bc:
                    33:d3
                Exponent: 65537 (0x10001)
        X509v3 extensions:
            X509v3 Key Usage: critical
                Digital Signature, Key Encipherment
            X509v3 Extended Key Usage: 
                TLS Web Server Authentication, TLS Web Client Authentication
            X509v3 Basic Constraints: critical
                CA:FALSE
            X509v3 Subject Key Identifier: 
                FF:FD:4A:EB:AA:1A:70:ED:49:B4:15:08:88:8C:30:3C:EF:C8:39:A9
            X509v3 Authority Key Identifier: 
                keyid:A8:4A:6A:63:04:7D:DD:BA:E6:D1:39:B7:A6:45:65:EF:F3:A8:EC:A1

            Authority Information Access: 
                OCSP - URI:http://ocsp.int-x3.letsencrypt.org
                CA Issuers - URI:http://cert.int-x3.letsencrypt.org/

            X509v3 Subject Alternative Name: 
                DNS:f1wall-dd.ipetronik.com
            X509v3 Certificate Policies: 
                Policy: 2.23.140.1.2.1
                Policy: 1.3.6.1.4.1.44947.1.1.1
                  CPS: http://cps.letsencrypt.org

            CT Precertificate SCTs: 
                Signed Certificate Timestamp:
                    Version   : v1(0)
                    Log ID    : F0:95:A4:59:F2:00:D1:82:40:10:2D:2F:93:88:8E:AD:
                                4B:FE:1D:47:E3:99:E1:D0:34:A6:B0:A8:AA:8E:B2:73
                    Timestamp : Jul 23 11:29:29.442 2020 GMT
                    Extensions: none
                    Signature : ecdsa-with-SHA256
                                30:44:02:20:3B:82:A1:DA:DC:84:A8:6E:CB:1B:A4:D1:
                                2F:F4:EA:AD:90:CE:21:AF:4B:20:5B:DD:52:03:D2:81:
                                F8:85:B8:0A:02:20:0B:BF:2D:2D:73:63:BC:C8:42:02:
                                A8:0A:7C:B2:E8:2C:E9:CF:80:2A:E9:61:01:4E:CD:A8:
                                6C:D1:E5:47:B8:0E
                Signed Certificate Timestamp:
                    Version   : v1(0)
                    Log ID    : 07:B7:5C:1B:E5:7D:68:FF:F1:B0:C6:1D:23:15:C7:BA:
                                E6:57:7C:57:94:B7:6A:EE:BC:61:3A:1A:69:D3:A2:1C
                    Timestamp : Jul 23 11:29:29.494 2020 GMT
                    Extensions: none
                    Signature : ecdsa-with-SHA256
                                30:46:02:21:00:BE:F4:06:2E:29:45:83:B4:EA:D0:61:
                                D2:A6:C0:F2:F6:34:FB:9B:8D:D4:79:E8:D7:03:97:0F:
                                3C:93:A9:7C:1A:02:21:00:EB:9F:EE:25:99:FF:BB:C0:
                                AC:01:D8:23:B1:7F:E1:E5:2E:92:8F:28:42:20:35:05:
                                E7:69:5E:21:85:ED:51:57
    Signature Algorithm: sha256WithRSAEncryption
         86:24:71:6f:88:81:61:a4:2a:40:24:a9:3e:7c:3e:3d:8b:18:
         81:3d:54:38:e8:23:36:24:0d:fa:ed:2b:8f:d1:c3:8a:24:49:
         1f:a2:ab:ef:16:5e:79:ab:4b:e5:e1:0d:b2:ad:25:8f:9a:c3:
         8c:f6:6e:97:14:b2:a6:66:22:27:7a:28:e2:67:7b:c3:46:95:
         a9:d2:0f:3b:53:f3:1d:60:de:83:8b:11:93:c9:41:16:74:c4:
         1d:ce:4c:b3:20:a4:20:06:8a:93:9b:ec:e9:e0:92:83:ab:31:
         ad:45:b9:6f:e2:be:be:80:95:d0:34:b2:10:8b:c0:37:97:27:
         d2:43:57:3b:2b:02:a0:84:df:67:ea:0d:74:b0:82:92:27:06:
         88:cb:8b:95:11:4d:1f:17:bd:91:21:05:ed:74:8d:b6:4a:16:
         1a:ea:2a:89:57:3d:3a:d5:17:2a:c3:91:85:ed:f4:13:89:9e:
         35:7f:8d:fd:70:2d:47:e9:0b:9e:86:40:ea:2a:16:76:6f:bb:
         25:d7:3f:72:86:79:d6:d8:7c:9f:ed:33:34:63:be:19:8d:5c:
         e9:d3:d1:02:65:8c:69:e8:8c:a2:82:4c:65:d6:ad:b7:8b:2f:
         be:34:4c:08:18:58:f5:93:1a:f0:10:58:21:bd:b8:85:c6:02:
         46:ec:e8:12
-----BEGIN CERTIFICATE-----
MIIFZjCCBE6gAwIBAgISA8BtJvTXnV1qZseOdUFPZKrKMA0GCSqGSIb3DQEBCwUA
MEoxCzAJBgNVBAYTAlVTMRYwFAYDVQQKEw1MZXQncyBFbmNyeXB0MSMwIQYDVQQD
ExpMZXQncyBFbmNyeXB0IEF1dGhvcml0eSBYMzAeFw0yMDA3MjMxMDI5MjlaFw0y
MDEwMjExMDI5MjlaMCIxIDAeBgNVBAMTF2Yxd2FsbC1kZC5pcGV0cm9uaWsuY29t
MIIBIjANBgkqhkiG9w0BAQEFAAOCAQ8AMIIBCgKCAQEAroP2I2JRR++KX4mcMUJ4
RPj9zDYU0HXKFccRdTZvGFqgju9XQTzJWEjI0RHuD9PjidU8w/rXVg7wKM3LeHLW
bJgEqzXcX0ILy0Zse8I4uG2QzhI0SgrH7X67/BhOd7Y7waMQKSXSI0FAaKUml/fd
I+DxV3Kc1IL7NbM8y0qnJWmW+UBy0+HdQ8uYrI1tmHX6Gj/eH5eLg3rLvXAjtZnG
E206Nz1ExfSVGTRs0goqitC2nBBKS3/k2gsDH82DbEb0ucJtbUDEcPUG8d2833ms
y0q94Ynnnkiqi/3PE2V+SDqCYm0dtEaBZ1Dp7Y0btW5CeqTrV7xIOVcGzY3RH7wz
0wIDAQABo4ICbDCCAmgwDgYDVR0PAQH/BAQDAgWgMB0GA1UdJQQWMBQGCCsGAQUF
BwMBBggrBgEFBQcDAjAMBgNVHRMBAf8EAjAAMB0GA1UdDgQWBBT//Urrqhpw7Um0
FQiIjDA878g5qTAfBgNVHSMEGDAWgBSoSmpjBH3duubRObemRWXv86jsoTBvBggr
BgEFBQcBAQRjMGEwLgYIKwYBBQUHMAGGImh0dHA6Ly9vY3NwLmludC14My5sZXRz
ZW5jcnlwdC5vcmcwLwYIKwYBBQUHMAKGI2h0dHA6Ly9jZXJ0LmludC14My5sZXRz
ZW5jcnlwdC5vcmcvMCIGA1UdEQQbMBmCF2Yxd2FsbC1kZC5pcGV0cm9uaWsuY29t
MEwGA1UdIARFMEMwCAYGZ4EMAQIBMDcGCysGAQQBgt8TAQEBMCgwJgYIKwYBBQUH
AgEWGmh0dHA6Ly9jcHMubGV0c2VuY3J5cHQub3JnMIIBBAYKKwYBBAHWeQIEAgSB
9QSB8gDwAHUA8JWkWfIA0YJAEC0vk4iOrUv+HUfjmeHQNKawqKqOsnMAAAFze293
YgAABAMARjBEAiA7gqHa3ISobssbpNEv9OqtkM4hr0sgW91SA9KB+IW4CgIgC78t
LXNjvMhCAqgKfLLoLOnPgCrpYQFOzahs0eVHuA4AdwAHt1wb5X1o//Gwxh0jFce6
5ld8V5S3au68YToaadOiHAAAAXN7b3eWAAAEAwBIMEYCIQC+9AYuKUWDtOrQYdKm
wPL2NPubjdR56NcDlw88k6l8GgIhAOuf7iWZ/7vArAHYI7F/4eUuko8oQiA1Bedp
XiGF7VFXMA0GCSqGSIb3DQEBCwUAA4IBAQCGJHFviIFhpCpAJKk+fD49ixiBPVQ4
6CM2JA367SuP0cOKJEkfoqvvFl55q0vl4Q2yrSWPmsOM9m6XFLKmZiIneijiZ3vD
RpWp0g87U/MdYN6DixGTyUEWdMQdzkyzIKQgBoqTm+zp4JKDqzGtRblv4r6+gJXQ
NLIQi8A3lyfSQ1c7KwKghN9n6g10sIKSJwaIy4uVEU0fF72RIQXtdI22ShYa6iqJ
Vz061Rcqw5GF7fQTiZ41f439cC1H6QuehkDqKhZ2b7sl1z9yhnnW2Hyf7TM0Y74Z
jVzp09ECZYxp6Iyigkxl1q23iy++NEwIGFj1kxrwEFghvbiFxgJG7OgS
-----END CERTIFICATE-----
