Certificate:
    Data:
        Version: 3 (0x2)
        Serial Number:
            03:32:3c:64:2c:9d:29:d1:b7:9d:36:36:3a:78:57:dd:a7:0f
    Signature Algorithm: sha256WithRSAEncryption
        Issuer: C=US, O=Let's Encrypt, CN=Let's Encrypt Authority X3
        Validity
            Not Before: Jul 23 04:53:17 2020 GMT
            Not After : Oct 21 04:53:17 2020 GMT
        Subject: CN=f1wall.ipetronik.com
        Subject Public Key Info:
            Public Key Algorithm: rsaEncryption
                Public-Key: (2048 bit)
                Modulus:
                    00:e4:09:96:a8:52:81:07:6e:87:d9:0c:23:a4:11:
                    21:5a:42:39:b5:aa:7d:9b:1d:22:53:b5:ae:b6:73:
                    80:f4:aa:25:7e:d2:38:0d:b5:6a:07:bf:a4:69:7e:
                    89:33:23:c8:1b:ee:de:b6:62:62:84:f8:e3:31:72:
                    db:67:b3:4a:bb:42:74:7e:e9:19:fc:81:0d:af:31:
                    ee:57:cd:58:35:72:16:57:fe:2f:f5:51:4d:ad:d7:
                    86:2f:8e:6e:76:37:64:7a:df:e4:45:f6:9e:d6:89:
                    60:f4:a7:92:ca:2d:79:b7:36:f0:eb:c7:fa:ad:1b:
                    40:1e:35:72:19:83:ad:b3:33:f4:a9:ff:e3:e4:70:
                    97:ec:11:7d:d2:a8:79:07:46:fa:51:f0:bd:29:48:
                    72:8d:94:8c:66:58:ff:be:01:c5:aa:9d:d6:fe:cc:
                    4d:21:96:4b:42:ab:f9:34:27:2b:ef:c7:5f:dc:9f:
                    e1:04:15:23:2f:1d:4d:78:0c:4e:28:03:53:21:40:
                    22:9d:11:61:1a:e3:7a:9e:07:03:02:12:cb:a2:56:
                    b7:f8:43:21:2a:e7:5e:b8:1f:69:55:fd:05:54:f7:
                    80:6d:13:47:b2:3c:80:77:d1:fb:16:ab:42:2c:43:
                    a9:82:7f:73:6d:c3:e5:86:62:a1:24:e8:8b:d6:13:
                    90:41
                Exponent: 65537 (0x10001)
        X509v3 extensions:
            X509v3 Key Usage: critical
                Digital Signature, Key Encipherment
            X509v3 Extended Key Usage: 
                TLS Web Server Authentication, TLS Web Client Authentication
            X509v3 Basic Constraints: critical
                CA:FALSE
            X509v3 Subject Key Identifier: 
                E8:C9:90:1E:1E:F7:DF:0C:EA:CB:C9:12:42:FC:54:3D:62:06:21:7E
            X509v3 Authority Key Identifier: 
                keyid:A8:4A:6A:63:04:7D:DD:BA:E6:D1:39:B7:A6:45:65:EF:F3:A8:EC:A1

            Authority Information Access: 
                OCSP - URI:http://ocsp.int-x3.letsencrypt.org
                CA Issuers - URI:http://cert.int-x3.letsencrypt.org/

            X509v3 Subject Alternative Name: 
                DNS:f1wall.ipetronik.com
            X509v3 Certificate Policies: 
                Policy: 2.23.140.1.2.1
                Policy: 1.3.6.1.4.1.44947.1.1.1
                  CPS: http://cps.letsencrypt.org

            CT Precertificate SCTs: 
                Signed Certificate Timestamp:
                    Version   : v1(0)
                    Log ID    : E7:12:F2:B0:37:7E:1A:62:FB:8E:C9:0C:61:84:F1:EA:
                                7B:37:CB:56:1D:11:26:5B:F3:E0:F3:4B:F2:41:54:6E
                    Timestamp : Jul 23 05:53:17.773 2020 GMT
                    Extensions: none
                    Signature : ecdsa-with-SHA256
                                30:44:02:20:66:1A:48:87:42:0D:24:23:3A:A8:6C:C4:
                                AB:16:4E:4F:1C:BB:E7:61:7C:95:76:1C:84:41:61:36:
                                26:E7:02:97:02:20:54:C7:22:AE:77:A5:B2:5A:FD:14:
                                50:60:B8:B4:6C:A9:F3:2D:60:79:AE:1E:46:EC:62:63:
                                1C:A4:EC:2B:DB:21
                Signed Certificate Timestamp:
                    Version   : v1(0)
                    Log ID    : 07:B7:5C:1B:E5:7D:68:FF:F1:B0:C6:1D:23:15:C7:BA:
                                E6:57:7C:57:94:B7:6A:EE:BC:61:3A:1A:69:D3:A2:1C
                    Timestamp : Jul 23 05:53:17.821 2020 GMT
                    Extensions: none
                    Signature : ecdsa-with-SHA256
                                30:46:02:21:00:90:73:ED:F7:63:D7:BB:51:B3:39:A0:
                                35:E9:1C:23:6B:52:42:53:FD:C8:4B:14:44:DC:01:DB:
                                77:8C:F7:C9:57:02:21:00:FD:6C:CF:E6:76:2F:3E:73:
                                39:69:16:AF:BB:66:97:3F:B0:C4:41:0B:DA:38:8A:5D:
                                8A:FA:9A:19:49:C6:C7:D5
    Signature Algorithm: sha256WithRSAEncryption
         61:6f:67:4d:a3:fa:0b:9e:fa:b6:ff:43:4e:5c:56:59:ae:98:
         da:e0:13:fb:00:ab:85:bf:89:d4:d2:72:5c:50:a9:7d:53:ff:
         47:b1:5c:49:cf:d9:b7:79:68:cd:9e:6b:3d:db:bd:98:f9:8b:
         cc:10:39:7e:2f:94:d1:15:b1:ad:8f:78:11:15:a3:90:80:e7:
         d7:15:94:c2:e7:e3:0c:a0:f0:14:0e:ce:dc:7d:66:81:e3:b9:
         7e:8d:77:55:f0:db:67:50:3d:a6:9c:9d:36:83:8e:f2:e0:7f:
         58:ea:c7:03:c7:98:33:a9:f9:a0:aa:df:9a:01:92:7c:43:2a:
         5f:bd:6d:0e:27:fd:9d:bf:98:63:55:8e:85:cb:b8:a2:9a:60:
         ac:c8:6f:d7:d0:99:a6:17:c6:63:12:88:c9:67:f9:96:d1:21:
         d4:74:10:8b:e7:13:c6:c2:7f:e5:fe:9d:cc:04:49:30:9c:b5:
         cb:43:29:6a:d6:50:67:ff:33:b0:6c:5d:41:ea:7e:d9:d0:dd:
         06:5b:0b:6c:cb:91:3b:4f:e8:40:40:e4:09:74:82:1c:b5:f6:
         a2:a5:7a:29:b9:d0:92:4e:19:7c:6b:17:97:80:e1:0c:d6:f3:
         66:66:4e:39:c4:6c:82:35:8e:93:fd:02:d0:0c:84:0c:63:fb:
         69:35:78:e9
-----BEGIN CERTIFICATE-----
MIIFYDCCBEigAwIBAgISAzI8ZCydKdG3nTY2OnhX3acPMA0GCSqGSIb3DQEBCwUA
MEoxCzAJBgNVBAYTAlVTMRYwFAYDVQQKEw1MZXQncyBFbmNyeXB0MSMwIQYDVQQD
ExpMZXQncyBFbmNyeXB0IEF1dGhvcml0eSBYMzAeFw0yMDA3MjMwNDUzMTdaFw0y
MDEwMjEwNDUzMTdaMB8xHTAbBgNVBAMTFGYxd2FsbC5pcGV0cm9uaWsuY29tMIIB
IjANBgkqhkiG9w0BAQEFAAOCAQ8AMIIBCgKCAQEA5AmWqFKBB26H2QwjpBEhWkI5
tap9mx0iU7WutnOA9KolftI4DbVqB7+kaX6JMyPIG+7etmJihPjjMXLbZ7NKu0J0
fukZ/IENrzHuV81YNXIWV/4v9VFNrdeGL45udjdket/kRfae1olg9KeSyi15tzbw
68f6rRtAHjVyGYOtszP0qf/j5HCX7BF90qh5B0b6UfC9KUhyjZSMZlj/vgHFqp3W
/sxNIZZLQqv5NCcr78df3J/hBBUjLx1NeAxOKANTIUAinRFhGuN6ngcDAhLLola3
+EMhKudeuB9pVf0FVPeAbRNHsjyAd9H7FqtCLEOpgn9zbcPlhmKhJOiL1hOQQQID
AQABo4ICaTCCAmUwDgYDVR0PAQH/BAQDAgWgMB0GA1UdJQQWMBQGCCsGAQUFBwMB
BggrBgEFBQcDAjAMBgNVHRMBAf8EAjAAMB0GA1UdDgQWBBToyZAeHvffDOrLyRJC
/FQ9YgYhfjAfBgNVHSMEGDAWgBSoSmpjBH3duubRObemRWXv86jsoTBvBggrBgEF
BQcBAQRjMGEwLgYIKwYBBQUHMAGGImh0dHA6Ly9vY3NwLmludC14My5sZXRzZW5j
cnlwdC5vcmcwLwYIKwYBBQUHMAKGI2h0dHA6Ly9jZXJ0LmludC14My5sZXRzZW5j
cnlwdC5vcmcvMB8GA1UdEQQYMBaCFGYxd2FsbC5pcGV0cm9uaWsuY29tMEwGA1Ud
IARFMEMwCAYGZ4EMAQIBMDcGCysGAQQBgt8TAQEBMCgwJgYIKwYBBQUHAgEWGmh0
dHA6Ly9jcHMubGV0c2VuY3J5cHQub3JnMIIBBAYKKwYBBAHWeQIEAgSB9QSB8gDw
AHUA5xLysDd+GmL7jskMYYTx6ns3y1YdESZb8+DzS/JBVG4AAAFzejurzQAABAMA
RjBEAiBmGkiHQg0kIzqobMSrFk5PHLvnYXyVdhyEQWE2JucClwIgVMcirnelslr9
FFBguLRsqfMtYHmuHkbsYmMcpOwr2yEAdwAHt1wb5X1o//Gwxh0jFce65ld8V5S3
au68YToaadOiHAAAAXN6O6v9AAAEAwBIMEYCIQCQc+33Y9e7UbM5oDXpHCNrUkJT
/chLFETcAdt3jPfJVwIhAP1sz+Z2Lz5zOWkWr7tmlz+wxEEL2jiKXYr6mhlJxsfV
MA0GCSqGSIb3DQEBCwUAA4IBAQBhb2dNo/oLnvq2/0NOXFZZrpja4BP7AKuFv4nU
0nJcUKl9U/9HsVxJz9m3eWjNnms9272Y+YvMEDl+L5TRFbGtj3gRFaOQgOfXFZTC
5+MMoPAUDs7cfWaB47l+jXdV8NtnUD2mnJ02g47y4H9Y6scDx5gzqfmgqt+aAZJ8
QypfvW0OJ/2dv5hjVY6Fy7iimmCsyG/X0JmmF8ZjEojJZ/mW0SHUdBCL5xPGwn/l
/p3MBEkwnLXLQylq1lBn/zOwbF1B6n7Z0N0GWwtsy5E7T+hAQOQJdIIctfaipXop
udCSThl8axeXgOEM1vNmZk45xGyCNY6T/QLQDIQMY/tpNXjp
-----END CERTIFICATE-----
